(lp0
(I50
S'sampleSet/000029-penny.png'
p1
tp2
a(I148
S'sampleSet/000055-penny.png'
p3
tp4
a(I68
S'sampleSet/000027-penny.png'
p5
tp6
a(I59
S'sampleSet/000010-penny.png'
p7
tp8
a(I44
S'sampleSet/000012-penny.png'
p9
tp10
a(I62
S'sampleSet/000004-penny.png'
p11
tp12
a(I36
S'sampleSet/000032-penny.png'
p13
tp14
a(I130
S'sampleSet/000044-penny.png'
p15
tp16
a(I66
S'sampleSet/000028-penny.png'
p17
tp18
a(I79
S'sampleSet/000005-penny.png'
p19
tp20
a(I73
S'sampleSet/000038-penny.png'
p21
tp22
a(I103
S'sampleSet/000065-penny.png'
p23
tp24
a(I51
S'sampleSet/000018-penny.png'
p25
tp26
a(I73
S'sampleSet/000008-penny.png'
p27
tp28
a(I104
S'sampleSet/000064-penny.png'
p29
tp30
a(I69
S'sampleSet/000062-penny.png'
p31
tp32
a(I61
S'sampleSet/000037-penny.png'
p33
tp34
a(I71
S'sampleSet/000052-penny.png'
p35
tp36
a(I64
S'sampleSet/000053-penny.png'
p37
tp38
a(I103
S'sampleSet/000046-penny.png'
p39
tp40
a(I54
S'sampleSet/000014-penny.png'
p41
tp42
a(I101
S'sampleSet/000067-penny.png'
p43
tp44
a(I78
S'sampleSet/000060-penny.png'
p45
tp46
a(I93
S'sampleSet/000019-penny.png'
p47
tp48
a(I125
S'sampleSet/000068-penny.png'
p49
tp50
a(I64
S'sampleSet/000039-penny.png'
p51
tp52
a(I64
S'sampleSet/000054-penny.png'
p53
tp54
a(I71
S'sampleSet/000057-penny.png'
p55
tp56
a(I78
S'sampleSet/000003-penny.png'
p57
tp58
a(I71
S'sampleSet/000016-penny.png'
p59
tp60
a(I125
S'sampleSet/000001-penny.png'
p61
tp62
a(I77
S'sampleSet/000069-penny.png'
p63
tp64
a(I62
S'sampleSet/000013-penny.png'
p65
tp66
a(I68
S'sampleSet/000025-penny.png'
p67
tp68
a(I71
S'sampleSet/000048-penny.png'
p69
tp70
a(I97
S'sampleSet/000006-penny.png'
p71
tp72
a(I43
S'sampleSet/000031-penny.png'
p73
tp74
a(I59
S'sampleSet/000034-penny.png'
p75
tp76
a(I117
S'sampleSet/000043-penny.png'
p77
tp78
a(I65
S'sampleSet/000026-penny.png'
p79
tp80
a(I106
S'sampleSet/000020-penny.png'
p81
tp82
a(I57
S'sampleSet/000015-penny.png'
p83
tp84
a(I36
S'sampleSet/000033-penny.png'
p85
tp86
a(I58
S'sampleSet/000017-penny.png'
p87
tp88
a(I99
S'sampleSet/000049-penny.png'
p89
tp90
a(I62
S'sampleSet/000050-penny.png'
p91
tp92
a(I109
S'sampleSet/000047-penny.png'
p93
tp94
a(I64
S'sampleSet/000036-penny.png'
p95
tp96
a(I134
S'sampleSet/000023-penny.png'
p97
tp98
a(I49
S'sampleSet/000035-penny.png'
p99
tp100
a(I68
S'sampleSet/000002-penny.png'
p101
tp102
a(I128
S'sampleSet/000066-penny.png'
p103
tp104
a(I46
S'sampleSet/000030-penny.png'
p105
tp106
a(I86
S'sampleSet/000042-penny.png'
p107
tp108
a(I127
S'sampleSet/000071-penny.png'
p109
tp110
a(I93
S'sampleSet/000022-penny.png'
p111
tp112
a(I156
S'sampleSet/000045-penny.png'
p113
tp114
a(I114
S'sampleSet/000024-penny.png'
p115
tp116
a(I129
S'sampleSet/000021-penny.png'
p117
tp118
a(I89
S'sampleSet/000009-penny.png'
p119
tp120
a(I115
S'sampleSet/000059-penny.png'
p121
tp122
a(I100
S'sampleSet/000041-penny.png'
p123
tp124
a(I100
S'sampleSet/000070-penny.png'
p125
tp126
a(I106
S'sampleSet/000058-penny.png'
p127
tp128
a(I77
S'sampleSet/000061-penny.png'
p129
tp130
a(I59
S'sampleSet/000007-penny.png'
p131
tp132
a(I138
S'sampleSet/000056-penny.png'
p133
tp134
a(I57
S'sampleSet/000051-penny.png'
p135
tp136
a(I75
S'sampleSet/000040-penny.png'
p137
tp138
a(I55
S'sampleSet/000011-penny.png'
p139
tp140
a(I100
S'sampleSet/000063-penny.png'
p141
tp142
a.