(lp0
(I126
S'sampleSet/0001-penny.png'
p1
tp2
a(I68
S'sampleSet/0002-penny.png'
p3
tp4
a(I79
S'sampleSet/0003-penny.png'
p5
tp6
a(I62
S'sampleSet/0004-penny.png'
p7
tp8
a(I79
S'sampleSet/0005-penny.png'
p9
tp10
a(I97
S'sampleSet/0006-penny.png'
p11
tp12
a(I59
S'sampleSet/0007-penny.png'
p13
tp14
a(I74
S'sampleSet/0008-penny.png'
p15
tp16
a(I89
S'sampleSet/0009-penny.png'
p17
tp18
a(I59
S'sampleSet/0010-penny.png'
p19
tp20
a(I55
S'sampleSet/0011-penny.png'
p21
tp22
a(I44
S'sampleSet/0012-penny.png'
p23
tp24
a(I62
S'sampleSet/0013-penny.png'
p25
tp26
a(I54
S'sampleSet/0014-penny.png'
p27
tp28
a(I57
S'sampleSet/0015-penny.png'
p29
tp30
a(I72
S'sampleSet/0016-penny.png'
p31
tp32
a(I58
S'sampleSet/0017-penny.png'
p33
tp34
a(I51
S'sampleSet/0018-penny.png'
p35
tp36
a(I94
S'sampleSet/0019-penny.png'
p37
tp38
a(I106
S'sampleSet/0020-penny.png'
p39
tp40
a(I129
S'sampleSet/0021-penny.png'
p41
tp42
a(I94
S'sampleSet/0022-penny.png'
p43
tp44
a(I134
S'sampleSet/0023-penny.png'
p45
tp46
a(I114
S'sampleSet/0024-penny.png'
p47
tp48
a(I68
S'sampleSet/0025-penny.png'
p49
tp50
a(I65
S'sampleSet/0026-penny.png'
p51
tp52
a(I68
S'sampleSet/0027-penny.png'
p53
tp54
a(I66
S'sampleSet/0028-penny.png'
p55
tp56
a(I49
S'sampleSet/0029-penny.png'
p57
tp58
a(I45
S'sampleSet/0030-penny.png'
p59
tp60
a(I43
S'sampleSet/0031-penny.png'
p61
tp62
a(I35
S'sampleSet/0032-penny.png'
p63
tp64
a(I36
S'sampleSet/0033-penny.png'
p65
tp66
a(I60
S'sampleSet/0034-penny.png'
p67
tp68
a(I50
S'sampleSet/0035-penny.png'
p69
tp70
a(I64
S'sampleSet/0036-penny.png'
p71
tp72
a(I62
S'sampleSet/0037-penny.png'
p73
tp74
a(I73
S'sampleSet/0038-penny.png'
p75
tp76
a(I64
S'sampleSet/0039-penny.png'
p77
tp78
a(I75
S'sampleSet/0040-penny.png'
p79
tp80
a(I100
S'sampleSet/0041-penny.png'
p81
tp82
a(I86
S'sampleSet/0042-penny.png'
p83
tp84
a(I117
S'sampleSet/0043-penny.png'
p85
tp86
a(I130
S'sampleSet/0044-penny.png'
p87
tp88
a(I156
S'sampleSet/0045-penny.png'
p89
tp90
a(I103
S'sampleSet/0046-penny.png'
p91
tp92
a(I109
S'sampleSet/0047-penny.png'
p93
tp94
a(I71
S'sampleSet/0048-penny.png'
p95
tp96
a(I99
S'sampleSet/0049-penny.png'
p97
tp98
a(I62
S'sampleSet/0050-penny.png'
p99
tp100
a(I57
S'sampleSet/0051-penny.png'
p101
tp102
a(I71
S'sampleSet/0052-penny.png'
p103
tp104
a(I64
S'sampleSet/0053-penny.png'
p105
tp106
a(I64
S'sampleSet/0054-penny.png'
p107
tp108
a(I148
S'sampleSet/0055-penny.png'
p109
tp110
a(I138
S'sampleSet/0056-penny.png'
p111
tp112
a(I71
S'sampleSet/0057-penny.png'
p113
tp114
a(I107
S'sampleSet/0058-penny.png'
p115
tp116
a(I115
S'sampleSet/0059-penny.png'
p117
tp118
a(I78
S'sampleSet/0060-penny.png'
p119
tp120
a(I77
S'sampleSet/0061-penny.png'
p121
tp122
a.