(dp0
I128
(lp1
S'sampleSet/000066-penny.png'
p2
asI129
(lp3
S'sampleSet/000021-penny.png'
p4
asI130
(lp5
S'sampleSet/000044-penny.png'
p6
asI134
(lp7
S'sampleSet/000023-penny.png'
p8
asI138
(lp9
S'sampleSet/000056-penny.png'
p10
asI148
(lp11
S'sampleSet/000055-penny.png'
p12
asI156
(lp13
S'sampleSet/000045-penny.png'
p14
asI36
(lp15
S'sampleSet/000032-penny.png'
p16
asI37
(lp17
S'sampleSet/000033-penny.png'
p18
asI43
(lp19
S'sampleSet/000031-penny.png'
p20
asI44
(lp21
S'sampleSet/000012-penny.png'
p22
asI46
(lp23
S'sampleSet/000030-penny.png'
p24
asI49
(lp25
S'sampleSet/000035-penny.png'
p26
asI50
(lp27
S'sampleSet/000029-penny.png'
p28
asI51
(lp29
S'sampleSet/000018-penny.png'
p30
asI54
(lp31
S'sampleSet/000014-penny.png'
p32
asI55
(lp33
S'sampleSet/000011-penny.png'
p34
asI57
(lp35
S'sampleSet/000015-penny.png'
p36
aS'sampleSet/000051-penny.png'
p37
asI58
(lp38
S'sampleSet/000017-penny.png'
p39
asI59
(lp40
S'sampleSet/000010-penny.png'
p41
aS'sampleSet/000007-penny.png'
p42
asI60
(lp43
S'sampleSet/000034-penny.png'
p44
asI61
(lp45
S'sampleSet/000037-penny.png'
p46
asI62
(lp47
S'sampleSet/000004-penny.png'
p48
aS'sampleSet/000013-penny.png'
p49
aS'sampleSet/000050-penny.png'
p50
asI64
(lp51
S'sampleSet/000053-penny.png'
p52
aS'sampleSet/000039-penny.png'
p53
aS'sampleSet/000054-penny.png'
p54
aS'sampleSet/000036-penny.png'
p55
asI65
(lp56
S'sampleSet/000026-penny.png'
p57
asI66
(lp58
S'sampleSet/000028-penny.png'
p59
asI68
(lp60
S'sampleSet/000027-penny.png'
p61
aS'sampleSet/000025-penny.png'
p62
aS'sampleSet/000002-penny.png'
p63
asI69
(lp64
S'sampleSet/000062-penny.png'
p65
asI71
(lp66
S'sampleSet/000052-penny.png'
p67
aS'sampleSet/000057-penny.png'
p68
aS'sampleSet/000016-penny.png'
p69
aS'sampleSet/000048-penny.png'
p70
asI73
(lp71
S'sampleSet/000038-penny.png'
p72
aS'sampleSet/000008-penny.png'
p73
asI75
(lp74
S'sampleSet/000040-penny.png'
p75
asI77
(lp76
S'sampleSet/000069-penny.png'
p77
aS'sampleSet/000061-penny.png'
p78
asI78
(lp79
S'sampleSet/000060-penny.png'
p80
aS'sampleSet/000003-penny.png'
p81
asI79
(lp82
S'sampleSet/000005-penny.png'
p83
asI86
(lp84
S'sampleSet/000042-penny.png'
p85
asI89
(lp86
S'sampleSet/000009-penny.png'
p87
asI93
(lp88
S'sampleSet/000019-penny.png'
p89
aS'sampleSet/000022-penny.png'
p90
asI97
(lp91
S'sampleSet/000006-penny.png'
p92
asI99
(lp93
S'sampleSet/000049-penny.png'
p94
asI100
(lp95
S'sampleSet/000041-penny.png'
p96
aS'sampleSet/000070-penny.png'
p97
aS'sampleSet/000063-penny.png'
p98
asI101
(lp99
S'sampleSet/000067-penny.png'
p100
asI103
(lp101
S'sampleSet/000065-penny.png'
p102
aS'sampleSet/000046-penny.png'
p103
asI104
(lp104
S'sampleSet/000064-penny.png'
p105
asI107
(lp106
S'sampleSet/000020-penny.png'
p107
aS'sampleSet/000058-penny.png'
p108
asI109
(lp109
S'sampleSet/000047-penny.png'
p110
asI114
(lp111
S'sampleSet/000024-penny.png'
p112
asI115
(lp113
S'sampleSet/000059-penny.png'
p114
asI118
(lp115
S'sampleSet/000043-penny.png'
p116
asI125
(lp117
S'sampleSet/000068-penny.png'
p118
asI126
(lp119
S'sampleSet/000001-penny.png'
p120
asI127
(lp121
S'sampleSet/000071-penny.png'
p122
as.