(dp0
I128
(lp1
S'sampleSet/000066-penny.png'
p2
asI129
(lp3
S'sampleSet/000021-penny.png'
p4
asI130
(lp5
S'sampleSet/000044-penny.png'
p6
asI134
(lp7
S'sampleSet/000023-penny.png'
p8
asI138
(lp9
S'sampleSet/000056-penny.png'
p10
asI148
(lp11
S'sampleSet/000055-penny.png'
p12
asI156
(lp13
S'sampleSet/000045-penny.png'
p14
asI36
(lp15
S'sampleSet/000033-penny.png'
p16
aS'sampleSet/000032-penny.png'
p17
asI43
(lp18
S'sampleSet/000031-penny.png'
p19
asI44
(lp20
S'sampleSet/000012-penny.png'
p21
asI46
(lp22
S'sampleSet/000030-penny.png'
p23
asI49
(lp24
S'sampleSet/000035-penny.png'
p25
asI50
(lp26
S'sampleSet/000029-penny.png'
p27
asI51
(lp28
S'sampleSet/000018-penny.png'
p29
asI54
(lp30
S'sampleSet/000014-penny.png'
p31
asI55
(lp32
S'sampleSet/000011-penny.png'
p33
asI57
(lp34
S'sampleSet/000015-penny.png'
p35
aS'sampleSet/000051-penny.png'
p36
asI58
(lp37
S'sampleSet/000017-penny.png'
p38
asI59
(lp39
S'sampleSet/000034-penny.png'
p40
aS'sampleSet/000007-penny.png'
p41
aS'sampleSet/000010-penny.png'
p42
asI61
(lp43
S'sampleSet/000037-penny.png'
p44
asI62
(lp45
S'sampleSet/000004-penny.png'
p46
aS'sampleSet/000050-penny.png'
p47
aS'sampleSet/000013-penny.png'
p48
asI64
(lp49
S'sampleSet/000039-penny.png'
p50
aS'sampleSet/000036-penny.png'
p51
aS'sampleSet/000054-penny.png'
p52
aS'sampleSet/000053-penny.png'
p53
asI65
(lp54
S'sampleSet/000026-penny.png'
p55
asI66
(lp56
S'sampleSet/000028-penny.png'
p57
asI68
(lp58
S'sampleSet/000027-penny.png'
p59
aS'sampleSet/000002-penny.png'
p60
aS'sampleSet/000025-penny.png'
p61
asI69
(lp62
S'sampleSet/000062-penny.png'
p63
asI71
(lp64
S'sampleSet/000048-penny.png'
p65
aS'sampleSet/000052-penny.png'
p66
aS'sampleSet/000057-penny.png'
p67
aS'sampleSet/000016-penny.png'
p68
asI73
(lp69
S'sampleSet/000008-penny.png'
p70
aS'sampleSet/000038-penny.png'
p71
asI75
(lp72
S'sampleSet/000040-penny.png'
p73
asI77
(lp74
S'sampleSet/000069-penny.png'
p75
aS'sampleSet/000061-penny.png'
p76
asI78
(lp77
S'sampleSet/000060-penny.png'
p78
aS'sampleSet/000003-penny.png'
p79
asI79
(lp80
S'sampleSet/000005-penny.png'
p81
asI86
(lp82
S'sampleSet/000042-penny.png'
p83
asI89
(lp84
S'sampleSet/000009-penny.png'
p85
asI91
(lp86
S'sampleSet/000073-penny.png'
p87
asI93
(lp88
S'sampleSet/000072-penny.png'
p89
aS'sampleSet/000022-penny.png'
p90
aS'sampleSet/000019-penny.png'
p91
asI97
(lp92
S'sampleSet/000006-penny.png'
p93
asI99
(lp94
S'sampleSet/000049-penny.png'
p95
asI100
(lp96
S'sampleSet/000041-penny.png'
p97
aS'sampleSet/000063-penny.png'
p98
aS'sampleSet/000070-penny.png'
p99
asI101
(lp100
S'sampleSet/000067-penny.png'
p101
asI103
(lp102
S'sampleSet/000065-penny.png'
p103
aS'sampleSet/000046-penny.png'
p104
asI104
(lp105
S'sampleSet/000064-penny.png'
p106
asI106
(lp107
S'sampleSet/000020-penny.png'
p108
aS'sampleSet/000058-penny.png'
p109
asI109
(lp110
S'sampleSet/000047-penny.png'
p111
asI114
(lp112
S'sampleSet/000024-penny.png'
p113
asI115
(lp114
S'sampleSet/000059-penny.png'
p115
asI117
(lp116
S'sampleSet/000043-penny.png'
p117
asI125
(lp118
S'sampleSet/000001-penny.png'
p119
aS'sampleSet/000068-penny.png'
p120
asI127
(lp121
S'sampleSet/000071-penny.png'
p122
as.